; Function Attrs: mustprogress nounwind uwtable
define hidden void @_ZN14MacroAssembler5andpsE11XMMRegister14AddressLiteral8Register(ptr noundef nonnull align 8 dereferenceable(40) %0, i32 %1, ptr noundef %2, i32 %3) local_unnamed_addr #0 align 2 {
  %5 = alloca %class.AddressLiteral, align 8
  %6 = alloca %class.Address, align 8
  %7 = alloca %class.AddressLiteral, align 8
  %8 = alloca %class.AddressLiteral, align 8
  %9 = alloca %class.Address, align 8
  %10 = load ptr, ptr %2, align 8
  %11 = getelementptr inbounds i8, ptr %10, i64 16
  %12 = load ptr, ptr %11, align 8
  call void %12(ptr noundef nonnull align 8 dereferenceable(20) %2, ptr noundef nonnull align 8 dereferenceable(40) %5) #18
  %13 = getelementptr inbounds i8, ptr %5, i64 40
  %14 = getelementptr inbounds i8, ptr %2, i64 40
  call void @llvm.memcpy.p0.p0.i64(ptr noundef nonnull align 8 dereferenceable(16) %13, ptr noundef nonnull align 8 dereferenceable(16) %14, i64 16, i1 false)
  %15 = call noundef zeroext i1 @_ZN9Assembler9reachableE14AddressLiteral(ptr noundef nonnull align 8 dereferenceable(40) %0, ptr noundef nonnull %5) #18
  %16 = load ptr, ptr %2, align 8
  %17 = getelementptr inbounds i8, ptr %16, i64 16
  %18 = load ptr, ptr %17, align 8
  br i1 %15, label %19, label %33

19:                                               ; preds = %4
  call void %18(ptr noundef nonnull align 8 dereferenceable(20) %2, ptr noundef nonnull align 8 dereferenceable(40) %7) #18
  %20 = getelementptr inbounds i8, ptr %7, i64 40
  call void @llvm.memcpy.p0.p0.i64(ptr noundef nonnull align 8 dereferenceable(16) %20, ptr noundef nonnull align 8 dereferenceable(16) %14, i64 16, i1 false)
  %21 = getelementptr inbounds i8, ptr %7, i64 48
  %22 = load ptr, ptr %21, align 8, !noalias !91
  %23 = getelementptr inbounds i8, ptr %0, i64 8
  %24 = load ptr, ptr %23, align 8, !noalias !91
  %25 = getelementptr inbounds i8, ptr %24, i64 16
  %26 = load ptr, ptr %25, align 8, !noalias !91
  %27 = ptrtoint ptr %22 to i64
  %28 = ptrtoint ptr %26 to i64
  %29 = sub i64 %27, %28
  %30 = trunc i64 %29 to i32
  %31 = getelementptr inbounds i8, ptr %7, i64 16
  %32 = load i32, ptr %31, align 8, !noalias !91
  call void @_ZN7AddressC1EiPhN9relocInfo9relocTypeE(ptr noundef nonnull align 8 dereferenceable(64) %6, i32 noundef %30, ptr noundef %22, i32 noundef %32) #18
  br label %43

33:                                               ; preds = %4
  call void %18(ptr noundef nonnull align 8 dereferenceable(20) %2, ptr noundef nonnull align 8 dereferenceable(40) %8) #18
  %34 = getelementptr inbounds i8, ptr %8, i64 40
  call void @llvm.memcpy.p0.p0.i64(ptr noundef nonnull align 8 dereferenceable(16) %34, ptr noundef nonnull align 8 dereferenceable(16) %14, i64 16, i1 false)
  %35 = getelementptr inbounds i8, ptr %8, i64 48
  %36 = load ptr, ptr %35, align 8
  %37 = ptrtoint ptr %36 to i64
  call void @_ZN9Assembler13mov_literal64E8RegisterlRK16RelocationHolder(ptr noundef nonnull align 8 dereferenceable(40) %0, i32 %3, i64 noundef %37, ptr noundef nonnull align 8 dereferenceable(40) %8) #18
  store i32 %3, ptr %9, align 8
  %38 = getelementptr inbounds i8, ptr %9, i64 4
  store <4 x i32> <i32 -1, i32 -1, i32 -1, i32 0>, ptr %38, align 4
  %39 = getelementptr inbounds i8, ptr %9, i64 20
  store i8 0, ptr %39, align 4
  %40 = getelementptr inbounds i8, ptr %9, i64 24
  store ptr getelementptr inbounds inrange(-16, 72) (i8, ptr @_ZTV10Relocation, i64 16), ptr %40, align 8
  %41 = getelementptr inbounds i8, ptr %9, i64 32
  store ptr null, ptr %41, align 8
  %42 = getelementptr inbounds i8, ptr %9, i64 40
  store i32 0, ptr %42, align 8
  br label %43

43:                                               ; preds = %33, %19
  %.sink = phi ptr [ %9, %33 ], [ %6, %19 ]
  call void @_ZN9Assembler5andpsE11XMMRegister7Address(ptr noundef nonnull align 8 dereferenceable(40) %0, i32 %1, ptr noundef nonnull %.sink) #18
  ret void
}